; Function Attrs: nounwind sspstrong uwtable
define internal void @uhci_child_detach(ptr noundef readonly captures(none) %port1, ptr noundef readnone %child) #0 {
entry:
  %opaque = getelementptr inbounds nuw i8, ptr %port1, i64 40
  %0 = load ptr, ptr %opaque, align 8
  %1 = getelementptr i8, ptr %0, i64 3304
  %.val = load ptr, ptr %1, align 8
  %tobool.not1.i = icmp eq ptr %.val, null
  br i1 %tobool.not1.i, label %uhci_async_cancel_device.exit, label %land.rhs.i

land.rhs.i:                                       ; preds = %entry, %for.inc.i
  %queue.02.i = phi ptr [ %2, %for.inc.i ], [ %.val, %entry ]
  %next.i = getelementptr inbounds nuw i8, ptr %queue.02.i, i64 24
  %2 = load ptr, ptr %next.i, align 8
  %ep.i = getelementptr inbounds nuw i8, ptr %queue.02.i, i64 16
  %3 = load ptr, ptr %ep.i, align 8
  %dev1.i = getelementptr inbounds nuw i8, ptr %3, i64 16
  %4 = load ptr, ptr %dev1.i, align 8
  %cmp.i = icmp eq ptr %4, %child
  br i1 %cmp.i, label %if.then.i, label %for.inc.i

if.then.i:                                        ; preds = %land.rhs.i
  tail call fastcc void @uhci_queue_free(ptr noundef nonnull %queue.02.i, ptr noundef nonnull @.str.4)
  br label %for.inc.i

for.inc.i:                                        ; preds = %if.then.i, %land.rhs.i
  %tobool.not.i = icmp eq ptr %2, null
  br i1 %tobool.not.i, label %uhci_async_cancel_device.exit, label %land.rhs.i, !llvm.loop !12

uhci_async_cancel_device.exit:                    ; preds = %for.inc.i, %entry
  ret void
}